target datalayout = "e-m:e-p270:32:32-p271:32:32-p272:64:64-i64:64-i128:128-f80:128-n8:16:32:64-S128"
target triple = "x86_64-pc-linux-gnu"

%struct.EncoderSession = type { i32, i32, i32, i32, ptr, ptr, ptr, i32, i32, i32, i64, i64, i64, i64, i32, i64, [16 x i8], %struct.SampleInfo, i32, %union.anon.4, ptr, ptr, ptr, double, double }
%struct.SampleInfo = type { i32, i32, i32, i32, i32, i32, i32, i32 }
%union.anon.4 = type { %struct.anon.6 }
%struct.anon.6 = type { ptr, %struct.FLACDecoderData }
%struct.FLACDecoderData = type { i64, ptr, i32, i64, [1024 x ptr], i64, i32 }

@stdin = external global ptr, align 8

; Function Attrs: nounwind sspstrong uwtable
define internal void @EncoderSession_destroy(ptr noundef %0) #0 {
  %2 = alloca ptr, align 8
  %3 = alloca i64, align 8
  store ptr %0, ptr %2, align 8, !tbaa !48
  %4 = load ptr, ptr %2, align 8, !tbaa !48
  %5 = getelementptr inbounds nuw %struct.EncoderSession, ptr %4, i32 0, i32 18
  %6 = load i32, ptr %5, align 8, !tbaa !65
  %7 = icmp eq i32 %6, 6
  br i1 %7, label %13, label %8

8:                                                ; preds = %1
  %9 = load ptr, ptr %2, align 8, !tbaa !48
  %10 = getelementptr inbounds nuw %struct.EncoderSession, ptr %9, i32 0, i32 18
  %11 = load i32, ptr %10, align 8, !tbaa !65
  %12 = icmp eq i32 %11, 7
  br i1 %12, label %13, label %52

13:                                               ; preds = %8, %1
  call void @llvm.lifetime.start.p0(i64 8, ptr %3) #14
  %14 = load ptr, ptr %2, align 8, !tbaa !48
  %15 = getelementptr inbounds nuw %struct.EncoderSession, ptr %14, i32 0, i32 19
  %16 = getelementptr inbounds nuw %struct.anon.6, ptr %15, i32 0, i32 0
  %17 = load ptr, ptr %16, align 8, !tbaa !17
  %18 = icmp ne ptr %17, null
  br i1 %18, label %19, label %24

19:                                               ; preds = %13
  %20 = load ptr, ptr %2, align 8, !tbaa !48
  %21 = getelementptr inbounds nuw %struct.EncoderSession, ptr %20, i32 0, i32 19
  %22 = getelementptr inbounds nuw %struct.anon.6, ptr %21, i32 0, i32 0
  %23 = load ptr, ptr %22, align 8, !tbaa !17
  call void @FLAC__stream_decoder_delete(ptr noundef %23)
  br label %24

24:                                               ; preds = %19, %13
  %25 = load ptr, ptr %2, align 8, !tbaa !48
  %26 = getelementptr inbounds nuw %struct.EncoderSession, ptr %25, i32 0, i32 19
  %27 = getelementptr inbounds nuw %struct.anon.6, ptr %26, i32 0, i32 0
  store ptr null, ptr %27, align 8, !tbaa !17
  store i64 0, ptr %3, align 8, !tbaa !9
  br label %28

28:                                               ; preds = %44, %24
  %29 = load i64, ptr %3, align 8, !tbaa !9
  %30 = load ptr, ptr %2, align 8, !tbaa !48
  %31 = getelementptr inbounds nuw %struct.EncoderSession, ptr %30, i32 0, i32 19
  %32 = getelementptr inbounds nuw %struct.anon.6, ptr %31, i32 0, i32 1
  %33 = getelementptr inbounds nuw %struct.FLACDecoderData, ptr %32, i32 0, i32 3
  %34 = load i64, ptr %33, align 8, !tbaa !17
  %35 = icmp ult i64 %29, %34
  br i1 %35, label %36, label %47

36:                                               ; preds = %28
  %37 = load ptr, ptr %2, align 8, !tbaa !48
  %38 = getelementptr inbounds nuw %struct.EncoderSession, ptr %37, i32 0, i32 19
  %39 = getelementptr inbounds nuw %struct.anon.6, ptr %38, i32 0, i32 1
  %40 = getelementptr inbounds nuw %struct.FLACDecoderData, ptr %39, i32 0, i32 4
  %41 = load i64, ptr %3, align 8, !tbaa !9
  %42 = getelementptr inbounds nuw [1024 x ptr], ptr %40, i64 0, i64 %41
  %43 = load ptr, ptr %42, align 8, !tbaa !17
  call void @FLAC__metadata_object_delete(ptr noundef %43)
  br label %44

44:                                               ; preds = %36
  %45 = load i64, ptr %3, align 8, !tbaa !9
  %46 = add i64 %45, 1
  store i64 %46, ptr %3, align 8, !tbaa !9
  br label %28, !llvm.loop !186

47:                                               ; preds = %28
  %48 = load ptr, ptr %2, align 8, !tbaa !48
  %49 = getelementptr inbounds nuw %struct.EncoderSession, ptr %48, i32 0, i32 19
  %50 = getelementptr inbounds nuw %struct.anon.6, ptr %49, i32 0, i32 1
  %51 = getelementptr inbounds nuw %struct.FLACDecoderData, ptr %50, i32 0, i32 3
  store i64 0, ptr %51, align 8, !tbaa !17
  call void @llvm.lifetime.end.p0(i64 8, ptr %3) #14
  br label %52

52:                                               ; preds = %47, %8
  %53 = load ptr, ptr %2, align 8, !tbaa !48
  %54 = getelementptr inbounds nuw %struct.EncoderSession, ptr %53, i32 0, i32 21
  %55 = load ptr, ptr %54, align 8, !tbaa !36
  %56 = load ptr, ptr @stdin, align 8, !tbaa !4
  %57 = icmp ne ptr %55, %56
  br i1 %57, label %58, label %63

58:                                               ; preds = %52
  %59 = load ptr, ptr %2, align 8, !tbaa !48
  %60 = getelementptr inbounds nuw %struct.EncoderSession, ptr %59, i32 0, i32 21
  %61 = load ptr, ptr %60, align 8, !tbaa !36
  %62 = call i32 @fclose(ptr noundef %61)
  br label %63

63:                                               ; preds = %58, %52
  %64 = load ptr, ptr %2, align 8, !tbaa !48
  %65 = getelementptr inbounds nuw %struct.EncoderSession, ptr %64, i32 0, i32 20
  %66 = load ptr, ptr %65, align 8, !tbaa !66
  %67 = icmp ne ptr null, %66
  br i1 %67, label %68, label %74

68:                                               ; preds = %63
  %69 = load ptr, ptr %2, align 8, !tbaa !48
  %70 = getelementptr inbounds nuw %struct.EncoderSession, ptr %69, i32 0, i32 20
  %71 = load ptr, ptr %70, align 8, !tbaa !66
  call void @FLAC__stream_encoder_delete(ptr noundef %71)
  %72 = load ptr, ptr %2, align 8, !tbaa !48
  %73 = getelementptr inbounds nuw %struct.EncoderSession, ptr %72, i32 0, i32 20
  store ptr null, ptr %73, align 8, !tbaa !66
  br label %74

74:                                               ; preds = %68, %63
  %75 = load ptr, ptr %2, align 8, !tbaa !48
  %76 = getelementptr inbounds nuw %struct.EncoderSession, ptr %75, i32 0, i32 22
  %77 = load ptr, ptr %76, align 8, !tbaa !67
  %78 = icmp ne ptr null, %77
  br i1 %78, label %79, label %85

79:                                               ; preds = %74
  %80 = load ptr, ptr %2, align 8, !tbaa !48
  %81 = getelementptr inbounds nuw %struct.EncoderSession, ptr %80, i32 0, i32 22
  %82 = load ptr, ptr %81, align 8, !tbaa !67
  call void @FLAC__metadata_object_delete(ptr noundef %82)
  %83 = load ptr, ptr %2, align 8, !tbaa !48
  %84 = getelementptr inbounds nuw %struct.EncoderSession, ptr %83, i32 0, i32 22
  store ptr null, ptr %84, align 8, !tbaa !67
  br label %85

85:                                               ; preds = %79, %74
  ret void
}