; Function Attrs: nounwind sspstrong uwtable
define internal fastcc void @EncoderSession_destroy(ptr noundef nonnull captures(none) %0) unnamed_addr #0 {
  %2 = getelementptr inbounds nuw i8, ptr %0, i64 152
  %3 = load i32, ptr %2, align 8, !tbaa !29
  %4 = and i32 %3, -2
  %switch = icmp eq i32 %4, 6
  br i1 %switch, label %5, label %19

5:                                                ; preds = %1
  %6 = getelementptr inbounds nuw i8, ptr %0, i64 160
  %7 = load ptr, ptr %6, align 8, !tbaa !30
  %.not = icmp eq ptr %7, null
  br i1 %.not, label %9, label %8

8:                                                ; preds = %5
  tail call void @FLAC__stream_decoder_delete(ptr noundef nonnull %7) #20
  br label %9

9:                                                ; preds = %8, %5
  store ptr null, ptr %6, align 8, !tbaa !30
  %10 = getelementptr inbounds nuw i8, ptr %0, i64 192
  %11 = load i64, ptr %10, align 8, !tbaa !30
  %.not27 = icmp eq i64 %11, 0
  br i1 %.not27, label %._crit_edge, label %.lr.ph

.lr.ph:                                           ; preds = %9
  %12 = getelementptr inbounds nuw i8, ptr %0, i64 200
  br label %13

13:                                               ; preds = %.lr.ph, %13
  %.026 = phi i64 [ 0, %.lr.ph ], [ %16, %13 ]
  %14 = getelementptr inbounds nuw [1024 x ptr], ptr %12, i64 0, i64 %.026
  %15 = load ptr, ptr %14, align 8, !tbaa !30
  tail call void @FLAC__metadata_object_delete(ptr noundef %15) #20
  %16 = add nuw i64 %.026, 1
  %17 = load i64, ptr %10, align 8, !tbaa !30
  %18 = icmp ult i64 %16, %17
  br i1 %18, label %13, label %._crit_edge, !llvm.loop !186

._crit_edge:                                      ; preds = %13, %9
  store i64 0, ptr %10, align 8, !tbaa !30
  br label %19

19:                                               ; preds = %1, %._crit_edge
  %20 = getelementptr inbounds nuw i8, ptr %0, i64 8416
  %21 = load ptr, ptr %20, align 8, !tbaa !31
  %22 = load ptr, ptr @stdin, align 8, !tbaa !33
  %.not23 = icmp eq ptr %21, %22
  br i1 %.not23, label %25, label %23

23:                                               ; preds = %19
  %24 = tail call i32 @fclose(ptr noundef %21)
  br label %25

25:                                               ; preds = %23, %19
  %26 = getelementptr inbounds nuw i8, ptr %0, i64 8408
  %27 = load ptr, ptr %26, align 8, !tbaa !34
  %.not24 = icmp eq ptr %27, null
  br i1 %.not24, label %29, label %28

28:                                               ; preds = %25
  tail call void @FLAC__stream_encoder_delete(ptr noundef nonnull %27) #20
  store ptr null, ptr %26, align 8, !tbaa !34
  br label %29

29:                                               ; preds = %28, %25
  %30 = getelementptr inbounds nuw i8, ptr %0, i64 8424
  %31 = load ptr, ptr %30, align 8, !tbaa !32
  %.not25 = icmp eq ptr %31, null
  br i1 %.not25, label %33, label %32

32:                                               ; preds = %29
  tail call void @FLAC__metadata_object_delete(ptr noundef nonnull %31) #20
  store ptr null, ptr %30, align 8, !tbaa !32
  br label %33

33:                                               ; preds = %32, %29
  ret void
}